target datalayout = "e-m:e-p270:32:32-p271:32:32-p272:64:64-i64:64-i128:128-f80:128-n8:16:32:64-S128"
target triple = "x86_64-unknown-linux-gnu"

%struct.QEMUBH = type { ptr, ptr, ptr, ptr, %struct.anon, i32, ptr }
%struct.anon = type { ptr }
%struct.AioContext = type { %struct._GSource, %struct.QemuRecMutex, ptr, %struct.AioHandlerList, %struct.AioHandlerList, i32, %struct.QemuLockCnt, %struct.BHList, %struct.anon.1, i8, %struct.EventNotifier, %struct.anon.2, ptr, i32, i32, ptr, ptr, %struct.io_uring, %struct.AioHandlerSList, %struct.QEMUTimerListGroup, i32, i64, i64, i64, i64, i64, %struct.AioHandlerList, i8, i32, ptr }
%struct._GSource = type { ptr, ptr, ptr, i32, ptr, i32, i32, i32, ptr, ptr, ptr, ptr, ptr }
%struct.QemuRecMutex = type { %struct.QemuMutex }
%struct.QemuMutex = type { %union.pthread_mutex_t, i8 }
%union.pthread_mutex_t = type { %struct.__pthread_mutex_s }
%struct.__pthread_mutex_s = type { i32, i32, i32, i32, i32, i16, i16, %struct.__pthread_internal_list }
%struct.__pthread_internal_list = type { ptr, ptr }
%struct.QemuLockCnt = type { i32 }
%struct.BHList = type { ptr }
%struct.anon.1 = type { ptr, ptr }
%struct.EventNotifier = type { i32, i32, i8 }
%struct.anon.2 = type { ptr }
%struct.io_uring = type { %struct.io_uring_sq, %struct.io_uring_cq, i32, i32, i32, [3 x i32] }
%struct.io_uring_sq = type { ptr, ptr, ptr, ptr, ptr, ptr, ptr, ptr, i32, i32, i64, ptr, [4 x i32] }
%struct.io_uring_cq = type { ptr, ptr, ptr, ptr, ptr, ptr, ptr, i64, ptr, [4 x i32] }
%struct.AioHandlerSList = type { ptr }
%struct.QEMUTimerListGroup = type { [4 x ptr] }
%struct.AioHandlerList = type { ptr }
%struct.BHListSlice = type { %struct.BHList, %struct.anon.0 }
%struct.anon.0 = type { ptr }

@.str = private unnamed_addr constant [21 x i8] c"../qemu/util/async.c\00", align 1
@__func__.aio_notify_accept = private unnamed_addr constant [18 x i8] c"aio_notify_accept\00", align 1
@__func__.aio_ctx_check = private unnamed_addr constant [14 x i8] c"aio_ctx_check\00", align 1

; Function Attrs: nounwind sspstrong uwtable
define dso_local void @aio_notify_accept(ptr noundef %ctx) #0 {
entry:
  %ctx.addr = alloca ptr, align 8
  %.atomictmp = alloca i8, align 1
  store ptr %ctx, ptr %ctx.addr, align 8
  br label %do.body

do.body:                                          ; preds = %entry
  br label %while.cond

while.cond:                                       ; preds = %do.end, %do.body
  br i1 false, label %while.body, label %while.end

while.body:                                       ; preds = %while.cond
  br label %do.body1

do.body1:                                         ; preds = %while.body
  call void @g_assertion_message_expr(ptr noundef null, ptr noundef @.str, i32 noundef 506, ptr noundef @__func__.aio_notify_accept, ptr noundef null) #10
  unreachable

do.end:                                           ; No predecessors!
  br label %while.cond

while.end:                                        ; preds = %while.cond
  %0 = load ptr, ptr %ctx.addr, align 8
  %notified = getelementptr inbounds %struct.AioContext, ptr %0, i32 0, i32 9
  store i8 0, ptr %.atomictmp, align 1
  %1 = load i8, ptr %.atomictmp, align 1
  store atomic i8 %1, ptr %notified monotonic, align 8
  br label %do.end2

do.end2:                                          ; preds = %while.end
  call void asm sideeffect "", "~{memory},~{dirflag},~{fpsr},~{flags}"() #11, !srcloc !15
  fence seq_cst
  ret void
}

; Function Attrs: nounwind sspstrong uwtable
define internal i32 @aio_ctx_check(ptr noundef %source) #0 {
entry:
  %retval = alloca i32, align 4
  %source.addr = alloca ptr, align 8
  %ctx = alloca ptr, align 8
  %bh = alloca ptr, align 8
  %s = alloca ptr, align 8
  %.atomictmp = alloca i32, align 4
  %tmp = alloca i32, align 4
  %atomic-temp = alloca i32, align 4
  %_val3 = alloca ptr, align 8
  %tmp14 = alloca ptr, align 8
  %_val4 = alloca ptr, align 8
  %tmp21 = alloca ptr, align 8
  %_val5 = alloca ptr, align 8
  %tmp32 = alloca ptr, align 8
  %_val6 = alloca ptr, align 8
  %tmp49 = alloca ptr, align 8
  store ptr %source, ptr %source.addr, align 8
  %0 = load ptr, ptr %source.addr, align 8
  store ptr %0, ptr %ctx, align 8
  br label %do.body

do.body:                                          ; preds = %entry
  br label %while.cond

while.cond:                                       ; preds = %do.end, %do.body
  br i1 false, label %while.body, label %while.end

while.body:                                       ; preds = %while.cond
  br label %do.body1

do.body1:                                         ; preds = %while.body
  call void @g_assertion_message_expr(ptr noundef null, ptr noundef @.str, i32 noundef 331, ptr noundef @__func__.aio_ctx_check, ptr noundef null) #10
  unreachable

do.end:                                           ; No predecessors!
  br label %while.cond

while.end:                                        ; preds = %while.cond
  %1 = load ptr, ptr %ctx, align 8
  %notify_me = getelementptr inbounds %struct.AioContext, ptr %1, i32 0, i32 5
  br label %while.cond2

while.cond2:                                      ; preds = %do.end5, %while.end
  br i1 false, label %while.body3, label %while.end6

while.body3:                                      ; preds = %while.cond2
  br label %do.body4

do.body4:                                         ; preds = %while.body3
  call void @g_assertion_message_expr(ptr noundef null, ptr noundef @.str, i32 noundef 331, ptr noundef @__func__.aio_ctx_check, ptr noundef null) #10
  unreachable

do.end5:                                          ; No predecessors!
  br label %while.cond2

while.end6:                                       ; preds = %while.cond2
  %2 = load ptr, ptr %ctx, align 8
  %notify_me7 = getelementptr inbounds %struct.AioContext, ptr %2, i32 0, i32 5
  %3 = load atomic i32, ptr %notify_me7 monotonic, align 8
  store i32 %3, ptr %atomic-temp, align 4
  %4 = load i32, ptr %atomic-temp, align 4
  store i32 %4, ptr %tmp, align 4
  %5 = load i32, ptr %tmp, align 4
  %and = and i32 %5, -2
  store i32 %and, ptr %.atomictmp, align 4
  %6 = load i32, ptr %.atomictmp, align 4
  store atomic i32 %6, ptr %notify_me release, align 8
  br label %do.end8

do.end8:                                          ; preds = %while.end6
  %7 = load ptr, ptr %ctx, align 8
  call void @aio_notify_accept(ptr noundef %7)
  br label %while.cond9

while.cond9:                                      ; preds = %do.end12, %do.end8
  br i1 false, label %while.body10, label %while.end13

while.body10:                                     ; preds = %while.cond9
  br label %do.body11

do.body11:                                        ; preds = %while.body10
  call void @g_assertion_message_expr(ptr noundef null, ptr noundef @.str, i32 noundef 334, ptr noundef @__func__.aio_ctx_check, ptr noundef null) #10
  unreachable

do.end12:                                         ; No predecessors!
  br label %while.cond9

while.end13:                                      ; preds = %while.cond9
  %8 = load ptr, ptr %ctx, align 8
  %bh_list = getelementptr inbounds %struct.AioContext, ptr %8, i32 0, i32 7
  %slh_first = getelementptr inbounds %struct.BHList, ptr %bh_list, i32 0, i32 0
  %9 = load atomic i64, ptr %slh_first monotonic, align 8
  store i64 %9, ptr %_val3, align 8
  call void asm sideeffect "", "~{memory},~{dirflag},~{fpsr},~{flags}"() #11, !srcloc !23
  %10 = load ptr, ptr %_val3, align 8
  store ptr %10, ptr %tmp14, align 8
  %11 = load ptr, ptr %tmp14, align 8
  store ptr %11, ptr %bh, align 8
  br label %for.cond

for.cond:                                         ; preds = %while.end20, %while.end13
  %12 = load ptr, ptr %bh, align 8
  %tobool = icmp ne ptr %12, null
  br i1 %tobool, label %for.body, label %for.end

for.body:                                         ; preds = %for.cond
  %13 = load ptr, ptr %bh, align 8
  %flags = getelementptr inbounds %struct.QEMUBH, ptr %13, i32 0, i32 5
  %14 = load i32, ptr %flags, align 8
  %and15 = and i32 %14, 6
  %cmp = icmp eq i32 %and15, 2
  br i1 %cmp, label %if.then, label %if.end

if.then:                                          ; preds = %for.body
  store i32 1, ptr %retval, align 4
  br label %return

if.end:                                           ; preds = %for.body
  br label %for.inc

for.inc:                                          ; preds = %if.end
  br label %while.cond16

while.cond16:                                     ; preds = %do.end19, %for.inc
  br i1 false, label %while.body17, label %while.end20

while.body17:                                     ; preds = %while.cond16
  br label %do.body18

do.body18:                                        ; preds = %while.body17
  call void @g_assertion_message_expr(ptr noundef null, ptr noundef @.str, i32 noundef 334, ptr noundef @__func__.aio_ctx_check, ptr noundef null) #10
  unreachable

do.end19:                                         ; No predecessors!
  br label %while.cond16

while.end20:                                      ; preds = %while.cond16
  %15 = load ptr, ptr %bh, align 8
  %next = getelementptr inbounds %struct.QEMUBH, ptr %15, i32 0, i32 4
  %sle_next = getelementptr inbounds %struct.anon, ptr %next, i32 0, i32 0
  %16 = load atomic i64, ptr %sle_next monotonic, align 8
  store i64 %16, ptr %_val4, align 8
  call void asm sideeffect "", "~{memory},~{dirflag},~{fpsr},~{flags}"() #11, !srcloc !24
  %17 = load ptr, ptr %_val4, align 8
  store ptr %17, ptr %tmp21, align 8
  %18 = load ptr, ptr %tmp21, align 8
  store ptr %18, ptr %bh, align 8
  br label %for.cond, !llvm.loop !25

for.end:                                          ; preds = %for.cond
  %19 = load ptr, ptr %ctx, align 8
  %bh_slice_list = getelementptr inbounds %struct.AioContext, ptr %19, i32 0, i32 8
  %sqh_first = getelementptr inbounds %struct.anon.1, ptr %bh_slice_list, i32 0, i32 0
  %20 = load ptr, ptr %sqh_first, align 8
  store ptr %20, ptr %s, align 8
  br label %for.cond22

for.cond22:                                       ; preds = %for.inc51, %for.end
  %21 = load ptr, ptr %s, align 8
  %tobool23 = icmp ne ptr %21, null
  br i1 %tobool23, label %for.body24, label %for.end53

for.body24:                                       ; preds = %for.cond22
  br label %while.cond25

while.cond25:                                     ; preds = %do.end28, %for.body24
  br i1 false, label %while.body26, label %while.end29

while.body26:                                     ; preds = %while.cond25
  br label %do.body27

do.body27:                                        ; preds = %while.body26
  call void @g_assertion_message_expr(ptr noundef null, ptr noundef @.str, i32 noundef 341, ptr noundef @__func__.aio_ctx_check, ptr noundef null) #10
  unreachable

do.end28:                                         ; No predecessors!
  br label %while.cond25

while.end29:                                      ; preds = %while.cond25
  %22 = load ptr, ptr %s, align 8
  %bh_list30 = getelementptr inbounds %struct.BHListSlice, ptr %22, i32 0, i32 0
  %slh_first31 = getelementptr inbounds %struct.BHList, ptr %bh_list30, i32 0, i32 0
  %23 = load atomic i64, ptr %slh_first31 monotonic, align 8
  store i64 %23, ptr %_val5, align 8
  call void asm sideeffect "", "~{memory},~{dirflag},~{fpsr},~{flags}"() #11, !srcloc !26
  %24 = load ptr, ptr %_val5, align 8
  store ptr %24, ptr %tmp32, align 8
  %25 = load ptr, ptr %tmp32, align 8
  store ptr %25, ptr %bh, align 8
  br label %for.cond33

for.cond33:                                       ; preds = %while.end46, %while.end29
  %26 = load ptr, ptr %bh, align 8
  %tobool34 = icmp ne ptr %26, null
  br i1 %tobool34, label %for.body35, label %for.end50

for.body35:                                       ; preds = %for.cond33
  %27 = load ptr, ptr %bh, align 8
  %flags36 = getelementptr inbounds %struct.QEMUBH, ptr %27, i32 0, i32 5
  %28 = load i32, ptr %flags36, align 8
  %and37 = and i32 %28, 6
  %cmp38 = icmp eq i32 %and37, 2
  br i1 %cmp38, label %if.then39, label %if.end40

if.then39:                                        ; preds = %for.body35
  store i32 1, ptr %retval, align 4
  br label %return

if.end40:                                         ; preds = %for.body35
  br label %for.inc41

for.inc41:                                        ; preds = %if.end40
  br label %while.cond42

while.cond42:                                     ; preds = %do.end45, %for.inc41
  br i1 false, label %while.body43, label %while.end46

while.body43:                                     ; preds = %while.cond42
  br label %do.body44

do.body44:                                        ; preds = %while.body43
  call void @g_assertion_message_expr(ptr noundef null, ptr noundef @.str, i32 noundef 341, ptr noundef @__func__.aio_ctx_check, ptr noundef null) #10
  unreachable

do.end45:                                         ; No predecessors!
  br label %while.cond42

while.end46:                                      ; preds = %while.cond42
  %29 = load ptr, ptr %bh, align 8
  %next47 = getelementptr inbounds %struct.QEMUBH, ptr %29, i32 0, i32 4
  %sle_next48 = getelementptr inbounds %struct.anon, ptr %next47, i32 0, i32 0
  %30 = load atomic i64, ptr %sle_next48 monotonic, align 8
  store i64 %30, ptr %_val6, align 8
  call void asm sideeffect "", "~{memory},~{dirflag},~{fpsr},~{flags}"() #11, !srcloc !27
  %31 = load ptr, ptr %_val6, align 8
  store ptr %31, ptr %tmp49, align 8
  %32 = load ptr, ptr %tmp49, align 8
  store ptr %32, ptr %bh, align 8
  br label %for.cond33, !llvm.loop !28

for.end50:                                        ; preds = %for.cond33
  br label %for.inc51

for.inc51:                                        ; preds = %for.end50
  %33 = load ptr, ptr %s, align 8
  %next52 = getelementptr inbounds %struct.BHListSlice, ptr %33, i32 0, i32 1
  %sqe_next = getelementptr inbounds %struct.anon.0, ptr %next52, i32 0, i32 0
  %34 = load ptr, ptr %sqe_next, align 8
  store ptr %34, ptr %s, align 8
  br label %for.cond22, !llvm.loop !29

for.end53:                                        ; preds = %for.cond22
  %35 = load ptr, ptr %ctx, align 8
  %call = call zeroext i1 @aio_pending(ptr noundef %35)
  br i1 %call, label %lor.end, label %lor.rhs

lor.rhs:                                          ; preds = %for.end53
  %36 = load ptr, ptr %ctx, align 8
  %tlg = getelementptr inbounds %struct.AioContext, ptr %36, i32 0, i32 19
  %call54 = call i64 @timerlistgroup_deadline_ns(ptr noundef %tlg)
  %cmp55 = icmp eq i64 %call54, 0
  br label %lor.end

lor.end:                                          ; preds = %lor.rhs, %for.end53
  %37 = phi i1 [ true, %for.end53 ], [ %cmp55, %lor.rhs ]
  %lor.ext = zext i1 %37 to i32
  store i32 %lor.ext, ptr %retval, align 4
  br label %return

return:                                           ; preds = %lor.end, %if.then39, %if.then
  %38 = load i32, ptr %retval, align 4
  ret i32 %38
}