; Function Attrs: nounwind sspstrong uwtable
define internal range(i32 0, 2) i32 @aio_ctx_check(ptr noundef %source) #0 {
entry:
  %notify_me = getelementptr inbounds nuw i8, ptr %source, i64 168
  %0 = load atomic i32, ptr %notify_me monotonic, align 8
  %and = and i32 %0, -2
  store atomic i32 %and, ptr %notify_me release, align 8
  %notified.i = getelementptr inbounds nuw i8, ptr %source, i64 200
  store atomic i8 0, ptr %notified.i monotonic, align 8
  tail call void asm sideeffect "", "~{memory},~{dirflag},~{fpsr},~{flags}"() #13, !srcloc !15
  fence seq_cst
  %bh_list = getelementptr inbounds nuw i8, ptr %source, i64 176
  %1 = load atomic i64, ptr %bh_list monotonic, align 8
  tail call void asm sideeffect "", "~{memory},~{dirflag},~{fpsr},~{flags}"() #13, !srcloc !23
  %tobool.not16 = icmp eq i64 %1, 0
  br i1 %tobool.not16, label %for.end, label %for.body

for.body:                                         ; preds = %entry, %while.end20
  %bh.017.in = phi i64 [ %3, %while.end20 ], [ %1, %entry ]
  %bh.017 = inttoptr i64 %bh.017.in to ptr
  %flags = getelementptr inbounds nuw i8, ptr %bh.017, i64 40
  %2 = load i32, ptr %flags, align 8
  %and15 = and i32 %2, 6
  %cmp = icmp eq i32 %and15, 2
  br i1 %cmp, label %return, label %while.end20

while.end20:                                      ; preds = %for.body
  %next = getelementptr inbounds nuw i8, ptr %bh.017, i64 32
  %3 = load atomic i64, ptr %next monotonic, align 8
  tail call void asm sideeffect "", "~{memory},~{dirflag},~{fpsr},~{flags}"() #13, !srcloc !24
  %tobool.not = icmp eq i64 %3, 0
  br i1 %tobool.not, label %for.end, label %for.body, !llvm.loop !25

for.end:                                          ; preds = %while.end20, %entry
  %bh_slice_list = getelementptr inbounds nuw i8, ptr %source, i64 184
  %s.021 = load ptr, ptr %bh_slice_list, align 8
  %tobool23.not22 = icmp eq ptr %s.021, null
  br i1 %tobool23.not22, label %for.end53, label %while.end29

while.end29:                                      ; preds = %for.end, %for.inc51
  %s.023 = phi ptr [ %s.0, %for.inc51 ], [ %s.021, %for.end ]
  %4 = load atomic i64, ptr %s.023 monotonic, align 8
  tail call void asm sideeffect "", "~{memory},~{dirflag},~{fpsr},~{flags}"() #13, !srcloc !26
  %tobool34.not19 = icmp eq i64 %4, 0
  br i1 %tobool34.not19, label %for.inc51, label %for.body35

for.body35:                                       ; preds = %while.end29, %while.end46
  %bh.120.in = phi i64 [ %6, %while.end46 ], [ %4, %while.end29 ]
  %bh.120 = inttoptr i64 %bh.120.in to ptr
  %flags36 = getelementptr inbounds nuw i8, ptr %bh.120, i64 40
  %5 = load i32, ptr %flags36, align 8
  %and37 = and i32 %5, 6
  %cmp38 = icmp eq i32 %and37, 2
  br i1 %cmp38, label %return, label %while.end46

while.end46:                                      ; preds = %for.body35
  %next47 = getelementptr inbounds nuw i8, ptr %bh.120, i64 32
  %6 = load atomic i64, ptr %next47 monotonic, align 8
  tail call void asm sideeffect "", "~{memory},~{dirflag},~{fpsr},~{flags}"() #13, !srcloc !27
  %tobool34.not = icmp eq i64 %6, 0
  br i1 %tobool34.not, label %for.inc51, label %for.body35, !llvm.loop !28

for.inc51:                                        ; preds = %while.end46, %while.end29
  %next52 = getelementptr inbounds nuw i8, ptr %s.023, i64 8
  %s.0 = load ptr, ptr %next52, align 8
  %tobool23.not = icmp eq ptr %s.0, null
  br i1 %tobool23.not, label %for.end53, label %while.end29, !llvm.loop !29

for.end53:                                        ; preds = %for.inc51, %for.end
  %call = tail call zeroext i1 @aio_pending(ptr noundef %source) #13
  br i1 %call, label %return, label %lor.rhs

lor.rhs:                                          ; preds = %for.end53
  %tlg = getelementptr inbounds nuw i8, ptr %source, i64 480
  %call54 = tail call i64 @timerlistgroup_deadline_ns(ptr noundef nonnull %tlg) #13
  %cmp55 = icmp eq i64 %call54, 0
  %7 = zext i1 %cmp55 to i32
  br label %return

return:                                           ; preds = %for.body, %for.body35, %for.end53, %lor.rhs
  %retval.0 = phi i32 [ 1, %for.end53 ], [ %7, %lor.rhs ], [ 1, %for.body35 ], [ 1, %for.body ]
  ret i32 %retval.0
}